; Function Attrs: mustprogress nofree norecurse nosync nounwind willreturn memory(read, inaccessiblemem: none) uwtable
define hidden noundef zeroext i1 @_ZN3opt6optsmt12is_unboundedEjb(ptr noundef nonnull readonly align 8 captures(none) dereferenceable(120) %0, i32 noundef %1, i1 noundef zeroext %2) local_unnamed_addr #8 align 2 {
  %4 = getelementptr inbounds nuw i8, ptr %0, i64 32
  %5 = load ptr, ptr %4, align 8
  %6 = zext i32 %1 to i64
  %7 = getelementptr inbounds nuw i8, ptr %0, i64 24
  %8 = load ptr, ptr %7, align 8
  %.0.in.in.in.v = select i1 %2, ptr %5, ptr %8
  %.0.in.in.in = getelementptr inbounds nuw %class.inf_eps_rational, ptr %.0.in.in.in.v, i64 %6
  %.0.in.in = load i32, ptr %.0.in.in.in, align 8, !tbaa !13
  %.0.in = icmp ne i32 %.0.in.in, 0
  ret i1 %.0.in
}